target datalayout = "e-m:e-p270:32:32-p271:32:32-p272:64:64-i64:64-i128:128-f80:128-n8:16:32:64-S128"
target triple = "x86_64-pc-linux-gnu"

@dissect_ieee802154_superframe.superframe = internal constant [7 x ptr] [ptr @hf_ieee802154_beacon_order, ptr @hf_ieee802154_superframe_order, ptr @hf_ieee802154_cap, ptr @hf_ieee802154_superframe_battery_ext, ptr @hf_ieee802154_superframe_coord, ptr @hf_ieee802154_assoc_permit, ptr null], align 16
@.str.32 = private unnamed_addr constant [27 x i8] c"Superframe Specification: \00", align 1
@ett_ieee802154_superframe = internal global i32 0, align 4

; Function Attrs: null_pointer_is_valid sspstrong uwtable
define hidden void @dissect_ieee802154_superframe(ptr noundef %0, ptr noundef %1, ptr noundef %2, ptr noundef %3) #0 {
  %5 = alloca ptr, align 8
  %6 = alloca ptr, align 8
  %7 = alloca ptr, align 8
  %8 = alloca ptr, align 8
  store ptr %0, ptr %5, align 8
  store ptr %1, ptr %6, align 8
  store ptr %2, ptr %7, align 8
  store ptr %3, ptr %8, align 8
  %9 = load ptr, ptr %7, align 8
  %10 = load ptr, ptr %5, align 8
  %11 = load ptr, ptr %8, align 8
  %12 = load i32, ptr %11, align 4
  %13 = load i32, ptr @ett_ieee802154_superframe, align 4
  %14 = call ptr @proto_tree_add_bitmask_text(ptr noundef %9, ptr noundef %10, i32 noundef %12, i32 noundef 2, ptr noundef @.str.32, ptr noundef null, i32 noundef %13, ptr noundef @dissect_ieee802154_superframe.superframe, i32 noundef -2147483648, i32 noundef 10)
  %15 = load ptr, ptr %8, align 8
  %16 = load i32, ptr %15, align 4
  %17 = add i32 %16, 2
  store i32 %17, ptr %15, align 4
  ret void
}