; Function Attrs: null_pointer_is_valid sspstrong uwtable
define hidden void @dissect_ieee802154_superframe(ptr noundef %0, ptr noundef readnone captures(none) %1, ptr noundef %2, ptr noundef captures(none) %3) local_unnamed_addr #0 {
  %5 = load i32, ptr %3, align 4
  %6 = load i32, ptr @ett_ieee802154_superframe, align 4
  %7 = tail call ptr @proto_tree_add_bitmask_text(ptr noundef %2, ptr noundef %0, i32 noundef %5, i32 noundef 2, ptr noundef nonnull @.str.32, ptr noundef null, i32 noundef %6, ptr noundef nonnull @dissect_ieee802154_superframe.superframe, i32 noundef -2147483648, i32 noundef 10)
  %8 = load i32, ptr %3, align 4
  %9 = add i32 %8, 2
  store i32 %9, ptr %3, align 4
  ret void
}